; Function Attrs: nounwind uwtable
define internal void @recff_string_op(ptr noundef %0, ptr noundef readonly captures(none) %1) #0 {
  %3 = getelementptr inbounds nuw i8, ptr %0, i64 160
  %4 = load ptr, ptr %3, align 8, !tbaa !37
  %5 = load i32, ptr %4, align 4, !tbaa !39
  %6 = tail call i32 @lj_ir_tostr(ptr noundef %0, i32 noundef %5) #9
  %7 = getelementptr inbounds i8, ptr %0, i64 -536
  %8 = tail call i32 @lj_ir_kptr_(ptr noundef %0, i32 noundef 25, ptr noundef nonnull %7) #9
  %9 = trunc i32 %8 to i16
  %10 = getelementptr inbounds nuw i8, ptr %0, i64 184
  %11 = getelementptr inbounds nuw i8, ptr %0, i64 188
  store i16 21769, ptr %11, align 4, !tbaa !4
  store i16 %9, ptr %10, align 8, !tbaa !4
  %12 = getelementptr inbounds nuw i8, ptr %0, i64 186
  store i16 0, ptr %12, align 2, !tbaa !4
  %13 = tail call i32 @lj_opt_fold(ptr noundef %0) #9
  %14 = getelementptr inbounds nuw i8, ptr %1, i64 16
  %15 = load i32, ptr %14, align 8, !tbaa !29
  %16 = tail call i32 (ptr, i32, ...) @lj_ir_call(ptr noundef %0, i32 noundef %15, i32 noundef %13, i32 noundef %6) #9
  %17 = trunc i32 %16 to i16
  %18 = trunc i32 %13 to i16
  store i16 22404, ptr %11, align 4, !tbaa !4
  store i16 %17, ptr %10, align 8, !tbaa !4
  store i16 %18, ptr %12, align 2, !tbaa !4
  %19 = tail call i32 @lj_opt_fold(ptr noundef %0) #9
  %20 = load ptr, ptr %3, align 8, !tbaa !37
  store i32 %19, ptr %20, align 4, !tbaa !39
  ret void
}